; Function Attrs: mustprogress uwtable
define void @_ZN3nix11RemoteStore13addSignaturesERKNS_9StorePathERKSt3setINSt7__cxx1112basic_stringIcSt11char_traitsIcESaIcEEESt4lessISA_ESaISA_EE(ptr noundef nonnull align 8 dereferenceable(25) %0, ptr noundef nonnull align 8 dereferenceable(32) %1, ptr noundef nonnull align 8 dereferenceable(48) %2) unnamed_addr #5 align 2 personality ptr @__gxx_personality_v0 {
  %4 = alloca [8 x i8], align 1
  %5 = alloca %"struct.nix::RemoteStore::ConnectionHandle", align 8
  %6 = alloca %"class.std::__cxx11::basic_string", align 8
  call void @_ZN3nix11RemoteStore13getConnectionEv(ptr dead_on_unwind nonnull writable sret(%"struct.nix::RemoteStore::ConnectionHandle") align 8 %5, ptr noundef nonnull align 8 dereferenceable(25) %0)
  %7 = getelementptr inbounds i8, ptr %5, i64 8
  %8 = load ptr, ptr %7, align 8
  %9 = getelementptr inbounds i8, ptr %8, i64 8
  %10 = load ptr, ptr %9, align 8
  %11 = getelementptr i8, ptr %10, i64 -48
  %12 = load i64, ptr %11, align 8
  %13 = getelementptr inbounds i8, ptr %9, i64 %12
  call void @llvm.lifetime.start.p0(i64 8, ptr nonnull %4)
  store i8 37, ptr %4, align 1
  %14 = getelementptr inbounds i8, ptr %4, i64 1
  call void @llvm.memset.p0.i64(ptr noundef nonnull align 1 dereferenceable(7) %14, i8 0, i64 7, i1 false)
  %15 = load ptr, ptr %13, align 8
  %16 = getelementptr inbounds i8, ptr %15, i64 16
  %17 = load ptr, ptr %16, align 8
  invoke void %17(ptr noundef nonnull align 8 dereferenceable(8) %13, i64 8, ptr nonnull %4)
          to label %18 unwind label %40

18:                                               ; preds = %3
  call void @llvm.lifetime.end.p0(i64 8, ptr nonnull %4)
  %19 = load ptr, ptr %0, align 8
  %20 = getelementptr i8, ptr %19, i64 -32
  %21 = load i64, ptr %20, align 8
  %22 = getelementptr inbounds i8, ptr %0, i64 %21
  invoke void @_ZNK3nix14StoreDirConfig14printStorePathB5cxx11ERKNS_9StorePathE(ptr dead_on_unwind nonnull writable sret(%"class.std::__cxx11::basic_string") align 8 %6, ptr noundef nonnull align 8 dereferenceable(344) %22, ptr noundef nonnull align 8 dereferenceable(32) %1)
          to label %23 unwind label %40

23:                                               ; preds = %18
  %24 = load ptr, ptr %6, align 8
  %25 = getelementptr inbounds i8, ptr %6, i64 8
  %26 = load i64, ptr %25, align 8
  %27 = invoke noundef nonnull align 8 dereferenceable(8) ptr @_ZN3nixlsERNS_4SinkESt17basic_string_viewIcSt11char_traitsIcEE(ptr noundef nonnull align 8 dereferenceable(8) %13, i64 %26, ptr %24)
          to label %28 unwind label %42

28:                                               ; preds = %23
  %29 = invoke noundef nonnull align 8 dereferenceable(8) ptr @_ZN3nixlsERNS_4SinkERKSt3setINSt7__cxx1112basic_stringIcSt11char_traitsIcESaIcEEESt4lessIS8_ESaIS8_EE(ptr noundef nonnull align 8 dereferenceable(8) %27, ptr noundef nonnull align 8 dereferenceable(48) %2)
          to label %30 unwind label %42

30:                                               ; preds = %28
  %31 = load ptr, ptr %6, align 8
  %32 = getelementptr inbounds i8, ptr %6, i64 16
  %33 = icmp eq ptr %31, %32
  br i1 %33, label %_ZNKSt7__cxx1112basic_stringIcSt11char_traitsIcESaIcEE11_M_is_localEv.exit.thread.i.i, label %_ZNKSt7__cxx1112basic_stringIcSt11char_traitsIcESaIcEE11_M_is_localEv.exit.i.i

_ZNKSt7__cxx1112basic_stringIcSt11char_traitsIcESaIcEE11_M_is_localEv.exit.thread.i.i: ; preds = %30
  %34 = load i64, ptr %25, align 8
  %35 = icmp ult i64 %34, 16
  call void @llvm.assume(i1 %35)
  br label %_ZNSt7__cxx1112basic_stringIcSt11char_traitsIcESaIcEED2Ev.exit

_ZNKSt7__cxx1112basic_stringIcSt11char_traitsIcESaIcEE11_M_is_localEv.exit.i.i: ; preds = %30
  call void @_ZdlPv(ptr noundef %31) #32
  br label %_ZNSt7__cxx1112basic_stringIcSt11char_traitsIcESaIcEED2Ev.exit

_ZNSt7__cxx1112basic_stringIcSt11char_traitsIcESaIcEED2Ev.exit: ; preds = %_ZNKSt7__cxx1112basic_stringIcSt11char_traitsIcESaIcEE11_M_is_localEv.exit.thread.i.i, %_ZNKSt7__cxx1112basic_stringIcSt11char_traitsIcESaIcEE11_M_is_localEv.exit.i.i
  call void @_ZNSaIcED2Ev(ptr noundef nonnull align 1 dereferenceable(1) %6) #29
  invoke void @_ZN3nix11RemoteStore16ConnectionHandle13processStderrEPNS_4SinkEPNS_6SourceEb(ptr noundef nonnull align 8 dereferenceable(33) %5, ptr noundef null, ptr noundef null, i1 noundef zeroext true)
          to label %36 unwind label %40

36:                                               ; preds = %_ZNSt7__cxx1112basic_stringIcSt11char_traitsIcESaIcEED2Ev.exit
  %37 = load ptr, ptr %7, align 8
  %38 = getelementptr inbounds i8, ptr %37, i64 64
  %39 = invoke noundef i32 @_ZN3nix7readNumIjEET_RNS_6SourceE(ptr noundef nonnull align 8 dereferenceable(8) %38)
          to label %_ZN3nix7readIntERNS_6SourceE.exit unwind label %40

_ZN3nix7readIntERNS_6SourceE.exit:                ; preds = %36
  call void @_ZN3nix11RemoteStore16ConnectionHandleD1Ev(ptr noundef nonnull align 8 dereferenceable(33) %5) #29
  ret void

40:                                               ; preds = %36, %3, %_ZNSt7__cxx1112basic_stringIcSt11char_traitsIcESaIcEED2Ev.exit, %18
  %41 = landingpad { ptr, i32 }
          cleanup
  br label %44

42:                                               ; preds = %28, %23
  %43 = landingpad { ptr, i32 }
          cleanup
  call void @_ZNSt7__cxx1112basic_stringIcSt11char_traitsIcESaIcEED2Ev(ptr noundef nonnull align 8 dereferenceable(32) %6) #29
  br label %44

44:                                               ; preds = %42, %40
  %.pn = phi { ptr, i32 } [ %41, %40 ], [ %43, %42 ]
  call void @_ZN3nix11RemoteStore16ConnectionHandleD1Ev(ptr noundef nonnull align 8 dereferenceable(33) %5) #29
  resume { ptr, i32 } %.pn
}